; ModuleID = '5/119.c'
source_filename = "5/119.c"
target datalayout = "e-m:e-p270:32:32-p271:32:32-p272:64:64-i64:64-f80:128-n8:16:32:64-S128"
target triple = "x86_64-pc-linux-gnu"

@.str = private unnamed_addr constant [4 x i8] c"%lf\00", align 1
@.str.1 = private unnamed_addr constant [3 x i8] c"%s\00", align 1
@.str.2 = private unnamed_addr constant [6 x i8] c"error\00", align 1
@.str.3 = private unnamed_addr constant [4 x i8] c"yes\00", align 1
@.str.4 = private unnamed_addr constant [3 x i8] c"no\00", align 1

; Function Attrs: noinline nounwind uwtable
define dso_local i32 @main() #0 {
  %1 = alloca i32, align 4
  %2 = alloca i32, align 4
  %3 = alloca i32, align 4
  %4 = alloca i32, align 4
  %5 = alloca i32, align 4
  %6 = alloca i32, align 4
  %7 = alloca [2 x i32], align 4
  %8 = alloca double, align 8
  %9 = alloca [2 x [505 x i8]], align 16
  store i32 0, i32* %1, align 4
  store i32 0, i32* %6, align 4
  %10 = call i32 (i8*, ...) @__isoc99_scanf(i8* getelementptr inbounds ([4 x i8], [4 x i8]* @.str, i64 0, i64 0), double* %8)
  store i32 0, i32* %2, align 4
  br label %11

11:                                               ; preds = %29, %0
  %12 = load i32, i32* %2, align 4
  %13 = icmp slt i32 %12, 2
  br i1 %13, label %14, label %32

14:                                               ; preds = %11
  %15 = load i32, i32* %2, align 4
  %16 = sext i32 %15 to i64
  %17 = getelementptr inbounds [2 x [505 x i8]], [2 x [505 x i8]]* %9, i64 0, i64 %16
  %18 = getelementptr inbounds [505 x i8], [505 x i8]* %17, i64 0, i64 0
  %19 = call i32 (i8*, ...) @__isoc99_scanf(i8* getelementptr inbounds ([3 x i8], [3 x i8]* @.str.1, i64 0, i64 0), i8* %18)
  %20 = load i32, i32* %2, align 4
  %21 = sext i32 %20 to i64
  %22 = getelementptr inbounds [2 x [505 x i8]], [2 x [505 x i8]]* %9, i64 0, i64 %21
  %23 = getelementptr inbounds [505 x i8], [505 x i8]* %22, i64 0, i64 0
  %24 = call i64 @strlen(i8* %23) #3
  %25 = trunc i64 %24 to i32
  %26 = load i32, i32* %2, align 4
  %27 = sext i32 %26 to i64
  %28 = getelementptr inbounds [2 x i32], [2 x i32]* %7, i64 0, i64 %27
  store i32 %25, i32* %28, align 4
  br label %29

29:                                               ; preds = %14
  %30 = load i32, i32* %2, align 4
  %31 = add nsw i32 %30, 1
  store i32 %31, i32* %2, align 4
  br label %11

32:                                               ; preds = %11
  store i32 0, i32* %2, align 4
  br label %33

33:                                               ; preds = %92, %32
  %34 = load i32, i32* %2, align 4
  %35 = icmp slt i32 %34, 2
  br i1 %35, label %36, label %95

36:                                               ; preds = %33
  store i32 0, i32* %3, align 4
  br label %37

37:                                               ; preds = %88, %36
  %38 = load i32, i32* %3, align 4
  %39 = load i32, i32* %2, align 4
  %40 = sext i32 %39 to i64
  %41 = getelementptr inbounds [2 x i32], [2 x i32]* %7, i64 0, i64 %40
  %42 = load i32, i32* %41, align 4
  %43 = icmp slt i32 %38, %42
  br i1 %43, label %44, label %91

44:                                               ; preds = %37
  %45 = load i32, i32* %2, align 4
  %46 = sext i32 %45 to i64
  %47 = getelementptr inbounds [2 x [505 x i8]], [2 x [505 x i8]]* %9, i64 0, i64 %46
  %48 = load i32, i32* %3, align 4
  %49 = sext i32 %48 to i64
  %50 = getelementptr inbounds [505 x i8], [505 x i8]* %47, i64 0, i64 %49
  %51 = load i8, i8* %50, align 1
  %52 = sext i8 %51 to i32
  %53 = icmp ne i32 %52, 65
  br i1 %53, label %54, label %87

54:                                               ; preds = %44
  %55 = load i32, i32* %2, align 4
  %56 = sext i32 %55 to i64
  %57 = getelementptr inbounds [2 x [505 x i8]], [2 x [505 x i8]]* %9, i64 0, i64 %56
  %58 = load i32, i32* %3, align 4
  %59 = sext i32 %58 to i64
  %60 = getelementptr inbounds [505 x i8], [505 x i8]* %57, i64 0, i64 %59
  %61 = load i8, i8* %60, align 1
  %62 = sext i8 %61 to i32
  %63 = icmp ne i32 %62, 84
  br i1 %63, label %64, label %87

64:                                               ; preds = %54
  %65 = load i32, i32* %2, align 4
  %66 = sext i32 %65 to i64
  %67 = getelementptr inbounds [2 x [505 x i8]], [2 x [505 x i8]]* %9, i64 0, i64 %66
  %68 = load i32, i32* %3, align 4
  %69 = sext i32 %68 to i64
  %70 = getelementptr inbounds [505 x i8], [505 x i8]* %67, i64 0, i64 %69
  %71 = load i8, i8* %70, align 1
  %72 = sext i8 %71 to i32
  %73 = icmp ne i32 %72, 67
  br i1 %73, label %74, label %87

74:                                               ; preds = %64
  %75 = load i32, i32* %2, align 4
  %76 = sext i32 %75 to i64
  %77 = getelementptr inbounds [2 x [505 x i8]], [2 x [505 x i8]]* %9, i64 0, i64 %76
  %78 = load i32, i32* %3, align 4
  %79 = sext i32 %78 to i64
  %80 = getelementptr inbounds [505 x i8], [505 x i8]* %77, i64 0, i64 %79
  %81 = load i8, i8* %80, align 1
  %82 = sext i8 %81 to i32
  %83 = icmp ne i32 %82, 71
  br i1 %83, label %84, label %87

84:                                               ; preds = %74
  %85 = load i32, i32* %6, align 4
  %86 = add nsw i32 %85, 1
  store i32 %86, i32* %6, align 4
  br label %87

87:                                               ; preds = %84, %74, %64, %54, %44
  br label %88

88:                                               ; preds = %87
  %89 = load i32, i32* %3, align 4
  %90 = add nsw i32 %89, 1
  store i32 %90, i32* %3, align 4
  br label %37

91:                                               ; preds = %37
  br label %92

92:                                               ; preds = %91
  %93 = load i32, i32* %2, align 4
  %94 = add nsw i32 %93, 1
  store i32 %94, i32* %2, align 4
  br label %33

95:                                               ; preds = %33
  %96 = getelementptr inbounds [2 x i32], [2 x i32]* %7, i64 0, i64 0
  %97 = load i32, i32* %96, align 4
  %98 = getelementptr inbounds [2 x i32], [2 x i32]* %7, i64 0, i64 1
  %99 = load i32, i32* %98, align 4
  %100 = icmp ne i32 %97, %99
  br i1 %100, label %101, label %104

101:                                              ; preds = %95
  %102 = load i32, i32* %6, align 4
  %103 = add nsw i32 %102, 1
  store i32 %103, i32* %6, align 4
  br label %104

104:                                              ; preds = %101, %95
  %105 = load i32, i32* %6, align 4
  %106 = icmp ne i32 %105, 0
  br i1 %106, label %107, label %109

107:                                              ; preds = %104
  %108 = call i32 (i8*, ...) @printf(i8* getelementptr inbounds ([6 x i8], [6 x i8]* @.str.2, i64 0, i64 0))
  br label %152

109:                                              ; preds = %104
  store i32 0, i32* %3, align 4
  br label %110

110:                                              ; preds = %133, %109
  %111 = load i32, i32* %3, align 4
  %112 = getelementptr inbounds [2 x i32], [2 x i32]* %7, i64 0, i64 0
  %113 = load i32, i32* %112, align 4
  %114 = icmp slt i32 %111, %113
  br i1 %114, label %115, label %136

115:                                              ; preds = %110
  %116 = getelementptr inbounds [2 x [505 x i8]], [2 x [505 x i8]]* %9, i64 0, i64 0
  %117 = load i32, i32* %3, align 4
  %118 = sext i32 %117 to i64
  %119 = getelementptr inbounds [505 x i8], [505 x i8]* %116, i64 0, i64 %118
  %120 = load i8, i8* %119, align 1
  %121 = sext i8 %120 to i32
  %122 = getelementptr inbounds [2 x [505 x i8]], [2 x [505 x i8]]* %9, i64 0, i64 1
  %123 = load i32, i32* %3, align 4
  %124 = sext i32 %123 to i64
  %125 = getelementptr inbounds [505 x i8], [505 x i8]* %122, i64 0, i64 %124
  %126 = load i8, i8* %125, align 1
  %127 = sext i8 %126 to i32
  %128 = icmp eq i32 %121, %127
  br i1 %128, label %129, label %132

129:                                              ; preds = %115
  %130 = load i32, i32* %6, align 4
  %131 = add nsw i32 %130, 1
  store i32 %131, i32* %6, align 4
  br label %132

132:                                              ; preds = %129, %115
  br label %133

133:                                              ; preds = %132
  %134 = load i32, i32* %3, align 4
  %135 = add nsw i32 %134, 1
  store i32 %135, i32* %3, align 4
  br label %110

136:                                              ; preds = %110
  %137 = load i32, i32* %6, align 4
  %138 = mul nsw i32 %137, 100
  %139 = getelementptr inbounds [2 x i32], [2 x i32]* %7, i64 0, i64 0
  %140 = load i32, i32* %139, align 4
  %141 = sdiv i32 %138, %140
  store i32 %141, i32* %4, align 4
  %142 = load i32, i32* %4, align 4
  %143 = sitofp i32 %142 to double
  %144 = load double, double* %8, align 8
  %145 = fmul double 1.000000e+02, %144
  %146 = fcmp ogt double %143, %145
  br i1 %146, label %147, label %149

147:                                              ; preds = %136
  %148 = call i32 (i8*, ...) @printf(i8* getelementptr inbounds ([4 x i8], [4 x i8]* @.str.3, i64 0, i64 0))
  br label %151

149:                                              ; preds = %136
  %150 = call i32 (i8*, ...) @printf(i8* getelementptr inbounds ([3 x i8], [3 x i8]* @.str.4, i64 0, i64 0))
  br label %151

151:                                              ; preds = %149, %147
  br label %152

152:                                              ; preds = %151, %107
  ret i32 0
}

declare dso_local i32 @__isoc99_scanf(i8*, ...) #1

; Function Attrs: nounwind readonly
declare dso_local i64 @strlen(i8*) #2

declare dso_local i32 @printf(i8*, ...) #1


!llvm.module.flags = !{!0}
!llvm.ident = !{!1}

!0 = !{i32 1, !"wchar_size", i32 4}
!1 = !{!"clang version 10.0.0-4ubuntu1 "}
